; Function Attrs: mustprogress uwtable
define hidden void @_ZNK3sls12bv_valuation7set_subERNS_5bvectERKS1_S4_(ptr noundef nonnull readonly align 8 captures(none) dereferenceable(184) %0, ptr noundef nonnull readonly align 8 captures(none) dereferenceable(20) %1, ptr noundef nonnull readonly align 8 captures(none) dereferenceable(20) %2, ptr noundef nonnull readonly align 8 captures(none) dereferenceable(20) %3) local_unnamed_addr #3 align 2 {
  %5 = alloca i32, align 4
  %6 = alloca %class.mpn_manager, align 1
  call void @llvm.lifetime.start.p0(i64 4, ptr nonnull %5) #29
  call void @llvm.lifetime.start.p0(i64 1, ptr nonnull %6) #29
  %7 = load ptr, ptr %2, align 8, !tbaa !14
  %8 = getelementptr inbounds nuw i8, ptr %0, i64 156
  %9 = load i32, ptr %8, align 4, !tbaa !68
  %10 = load ptr, ptr %3, align 8, !tbaa !14
  %11 = load ptr, ptr %1, align 8, !tbaa !14
  %12 = call noundef zeroext i1 @_ZNK11mpn_manager3subEPKjjS1_jPjS2_(ptr noundef nonnull align 1 dereferenceable(1) %6, ptr noundef %7, i32 noundef %9, ptr noundef %10, i32 noundef %9, ptr noundef %11, ptr noundef nonnull %5)
  call void @llvm.lifetime.end.p0(i64 1, ptr nonnull %6) #29
  %13 = getelementptr inbounds nuw i8, ptr %0, i64 148
  %14 = load i32, ptr %13, align 4, !tbaa !69
  %15 = load i32, ptr %8, align 4, !tbaa !68
  %16 = add i32 %15, -1
  %17 = load ptr, ptr %1, align 8, !tbaa !14
  %18 = zext i32 %16 to i64
  %19 = getelementptr inbounds nuw i32, ptr %17, i64 %18
  %20 = load i32, ptr %19, align 4, !tbaa !15
  %21 = and i32 %20, %14
  store i32 %21, ptr %19, align 4, !tbaa !15
  call void @llvm.lifetime.end.p0(i64 4, ptr nonnull %5) #29
  ret void
}